; ModuleID = '29/1941.c'
source_filename = "29/1941.c"
target datalayout = "e-m:e-p270:32:32-p271:32:32-p272:64:64-i64:64-f80:128-n8:16:32:64-S128"
target triple = "x86_64-pc-linux-gnu"

@.str = private unnamed_addr constant [3 x i8] c"%d\00", align 1
@.str.1 = private unnamed_addr constant [7 x i8] c"2.000\0A\00", align 1
@.str.2 = private unnamed_addr constant [6 x i8] c"%.3f\0A\00", align 1

; Function Attrs: noinline nounwind uwtable
define dso_local i32 @main() #0 {
  %1 = alloca i32, align 4
  %2 = alloca i32, align 4
  %3 = alloca i32, align 4
  %4 = alloca i32, align 4
  %5 = alloca i32, align 4
  %6 = alloca i32, align 4
  %7 = alloca i32, align 4
  %8 = alloca i32, align 4
  %9 = alloca float, align 4
  %10 = alloca float, align 4
  store i32 0, i32* %1, align 4
  store i32 2, i32* %5, align 4
  store i32 1, i32* %6, align 4
  store float 0.000000e+00, float* %10, align 4
  %11 = call i32 (i8*, ...) @__isoc99_scanf(i8* getelementptr inbounds ([3 x i8], [3 x i8]* @.str, i64 0, i64 0), i32* %2)
  store i32 1, i32* %8, align 4
  br label %12

12:                                               ; preds = %54, %0
  %13 = load i32, i32* %8, align 4
  %14 = load i32, i32* %2, align 4
  %15 = icmp sle i32 %13, %14
  br i1 %15, label %16, label %57

16:                                               ; preds = %12
  store float 0.000000e+00, float* %10, align 4
  store i32 2, i32* %5, align 4
  store i32 1, i32* %6, align 4
  %17 = call i32 (i8*, ...) @__isoc99_scanf(i8* getelementptr inbounds ([3 x i8], [3 x i8]* @.str, i64 0, i64 0), i32* %3)
  %18 = load i32, i32* %3, align 4
  %19 = icmp eq i32 %18, 1
  br i1 %19, label %20, label %22

20:                                               ; preds = %16
  %21 = call i32 (i8*, ...) @printf(i8* getelementptr inbounds ([7 x i8], [7 x i8]* @.str.1, i64 0, i64 0))
  br label %53

22:                                               ; preds = %16
  store i32 1, i32* %4, align 4
  br label %23

23:                                               ; preds = %44, %22
  %24 = load i32, i32* %4, align 4
  %25 = load i32, i32* %3, align 4
  %26 = sub nsw i32 %25, 1
  %27 = icmp sle i32 %24, %26
  br i1 %27, label %28, label %47

28:                                               ; preds = %23
  %29 = load i32, i32* %5, align 4
  store i32 %29, i32* %7, align 4
  %30 = load i32, i32* %5, align 4
  %31 = load i32, i32* %6, align 4
  %32 = add nsw i32 %30, %31
  store i32 %32, i32* %5, align 4
  %33 = load i32, i32* %7, align 4
  store i32 %33, i32* %6, align 4
  %34 = load i32, i32* %5, align 4
  %35 = sitofp i32 %34 to double
  %36 = fmul double 1.000000e+00, %35
  %37 = load i32, i32* %6, align 4
  %38 = sitofp i32 %37 to double
  %39 = fdiv double %36, %38
  %40 = fptrunc double %39 to float
  store float %40, float* %9, align 4
  %41 = load float, float* %10, align 4
  %42 = load float, float* %9, align 4
  %43 = fadd float %41, %42
  store float %43, float* %10, align 4
  br label %44

44:                                               ; preds = %28
  %45 = load i32, i32* %4, align 4
  %46 = add nsw i32 %45, 1
  store i32 %46, i32* %4, align 4
  br label %23

47:                                               ; preds = %23
  %48 = load float, float* %10, align 4
  %49 = fadd float %48, 2.000000e+00
  store float %49, float* %10, align 4
  %50 = load float, float* %10, align 4
  %51 = fpext float %50 to double
  %52 = call i32 (i8*, ...) @printf(i8* getelementptr inbounds ([6 x i8], [6 x i8]* @.str.2, i64 0, i64 0), double %51)
  br label %53

53:                                               ; preds = %47, %20
  br label %54

54:                                               ; preds = %53
  %55 = load i32, i32* %8, align 4
  %56 = add nsw i32 %55, 1
  store i32 %56, i32* %8, align 4
  br label %12

57:                                               ; preds = %12
  ret i32 0
}

declare dso_local i32 @__isoc99_scanf(i8*, ...) #1

declare dso_local i32 @printf(i8*, ...) #1


!llvm.module.flags = !{!0}
!llvm.ident = !{!1}

!0 = !{i32 1, !"wchar_size", i32 4}
!1 = !{!"clang version 10.0.0-4ubuntu1 "}
